; Function Attrs: mustprogress uwtable
define void @_ZNK6icu_776number5Scale7applyToERNS0_4impl15DecimalQuantityE(ptr noundef nonnull readonly align 8 captures(none) dereferenceable(20) %0, ptr noundef nonnull align 8 dereferenceable(66) %1) local_unnamed_addr #1 align 2 {
  %3 = alloca i32, align 4
  %4 = load i32, ptr %0, align 8, !tbaa !15
  %5 = tail call noundef zeroext i1 @_ZN6icu_776number4impl15DecimalQuantity15adjustMagnitudeEi(ptr noundef nonnull align 8 dereferenceable(66) %1, i32 noundef %4)
  %6 = getelementptr inbounds nuw i8, ptr %0, i64 8
  %7 = load ptr, ptr %6, align 8, !tbaa !18
  %.not = icmp eq ptr %7, null
  br i1 %.not, label %9, label %8

8:                                                ; preds = %2
  call void @llvm.lifetime.start.p0(i64 4, ptr nonnull %3) #13
  store i32 0, ptr %3, align 4, !tbaa !13
  call void @_ZN6icu_776number4impl15DecimalQuantity10multiplyByERKNS1_6DecNumER10UErrorCode(ptr noundef nonnull align 8 dereferenceable(66) %1, ptr noundef nonnull align 8 dereferenceable(92) %7, ptr noundef nonnull align 4 dereferenceable(4) %3)
  call void @llvm.lifetime.end.p0(i64 4, ptr nonnull %3) #13
  br label %9

9:                                                ; preds = %8, %2
  ret void
}